(dp0
Vmessages
p1
(lp2
VCould not find any messages containing line information.
p3
aVPlease take a look at the log file graph paper.latexmk.log to find the source of the problem.
p4
asVfiles_with_guttermarks
p5
c__builtin__
set
p6
((lp7
V/Users/mcnees/Projects/LaTeX-Graph-Paper/./graph paper.tex
p8
aV/Users/mcnees/Projects/LaTeX-Graph-Paper/./gridpapers.sty
p9
atp10
Rp11
s.